target datalayout = "e-m:e-p270:32:32-p271:32:32-p272:64:64-i64:64-i128:128-f80:128-n8:16:32:64-S128"
target triple = "x86_64-pc-linux-gnu"

%struct.H5C_class_t = type { i32, ptr, i32, i32, ptr, ptr, ptr, ptr, ptr, ptr, ptr, ptr, ptr, ptr }
%struct.H5FA_hdr_t = type { %struct.H5C_cache_entry_t, %struct.H5FA_create_t, i64, %struct.H5FA_stat_t, i64, i64, i64, ptr, i64, i8, i64, i64, ptr, i8, ptr, ptr }
%struct.H5C_cache_entry_t = type { ptr, i64, i64, ptr, i8, ptr, i8, i8, i8, i8, i32, i8, i8, i8, i8, i8, i32, ptr, i32, i32, i32, i32, i32, i8, i8, ptr, ptr, ptr, ptr, ptr, ptr, i8, i32, i8, i64, ptr, i64, i64, i32, i8, i32, i32, i8, ptr, ptr, ptr }
%struct.H5FA_create_t = type { ptr, i8, i8, i64 }
%struct.H5FA_stat_t = type { i64, i64, i64 }

@H5FA_init_g = external global i8, align 1
@H5_libterm_g = external global i8, align 1
@.str = private unnamed_addr constant [101 x i8] c"generated/home/dtcxzyw/WorkSpace/Projects/compilers/llvm-opt-benchmark/bench/hdf5/hdf5/src/H5FAhdr.c\00", align 1
@H5E_FARRAY_g = external global i64, align 8
@H5AC_FARRAY_HDR = external constant [1 x %struct.H5C_class_t], align 16
@H5E_CANTUNPROTECT_g = external global i64, align 8
@__func__.H5FA__hdr_delete = private unnamed_addr constant [17 x i8] c"H5FA__hdr_delete\00", align 1
@H5E_CANTDELETE_g = external global i64, align 8
@.str.17 = private unnamed_addr constant [40 x i8] c"unable to delete fixed array data block\00", align 1
@.str.18 = private unnamed_addr constant [37 x i8] c"unable to release fixed array header\00", align 1

; Function Attrs: nounwind uwtable
define i32 @H5FA__hdr_delete(ptr noundef %0) #0 {
  %2 = alloca ptr, align 8
  %3 = alloca i32, align 4
  %4 = alloca i32, align 4
  %5 = alloca i8, align 1
  store ptr %0, ptr %2, align 8, !tbaa !8
  call void @llvm.lifetime.start.p0(i64 4, ptr %3) #5
  store i32 0, ptr %3, align 4, !tbaa !34
  call void @llvm.lifetime.start.p0(i64 4, ptr %4) #5
  store i32 0, ptr %4, align 4, !tbaa !34
  call void @llvm.lifetime.start.p0(i64 1, ptr %5) #5
  store i8 0, ptr %5, align 1, !tbaa !10
  %6 = load i8, ptr @H5FA_init_g, align 1, !tbaa !10, !range !12, !noundef !13
  %7 = trunc i8 %6 to i1
  br i1 %7, label %12, label %8

8:                                                ; preds = %1
  %9 = load i8, ptr @H5_libterm_g, align 1, !tbaa !10, !range !12, !noundef !13
  %10 = trunc i8 %9 to i1
  %11 = xor i1 %10, true
  br label %12

12:                                               ; preds = %8, %1
  %13 = phi i1 [ true, %1 ], [ %11, %8 ]
  %14 = xor i1 %13, true
  %15 = xor i1 %14, true
  %16 = zext i1 %15 to i32
  %17 = sext i32 %16 to i64
  %18 = call i64 @llvm.expect.i64(i64 %17, i64 1)
  %19 = icmp ne i64 %18, 0
  br i1 %19, label %20, label %83

20:                                               ; preds = %12
  %21 = load ptr, ptr %2, align 8, !tbaa !8
  %22 = getelementptr inbounds nuw %struct.H5FA_hdr_t, ptr %21, i32 0, i32 2
  %23 = load i64, ptr %22, align 8, !tbaa !49
  %24 = icmp ne i64 %23, -1
  br i1 %24, label %25, label %52

25:                                               ; preds = %20
  %26 = load ptr, ptr %2, align 8, !tbaa !8
  %27 = load ptr, ptr %2, align 8, !tbaa !8
  %28 = getelementptr inbounds nuw %struct.H5FA_hdr_t, ptr %27, i32 0, i32 2
  %29 = load i64, ptr %28, align 8, !tbaa !49
  %30 = call i32 @H5FA__dblock_delete(ptr noundef %26, i64 noundef %29)
  %31 = icmp slt i32 %30, 0
  br i1 %31, label %32, label %51

32:                                               ; preds = %25
  br label %33

33:                                               ; preds = %32
  br label %34

34:                                               ; preds = %33
  br label %35

35:                                               ; preds = %34
  %36 = load i64, ptr @H5E_FARRAY_g, align 8, !tbaa !14
  %37 = load i64, ptr @H5E_CANTDELETE_g, align 8, !tbaa !14
  %38 = call i32 (ptr, ptr, i32, i64, i64, ptr, ...) @H5E_printf_stack(ptr noundef @.str, ptr noundef @__func__.H5FA__hdr_delete, i32 noundef 514, i64 noundef %36, i64 noundef %37, ptr noundef @.str.17)
  br label %39

39:                                               ; preds = %35
  br label %40

40:                                               ; preds = %39
  store i8 1, ptr %5, align 1, !tbaa !10
  %41 = load i8, ptr %5, align 1, !tbaa !10, !range !12, !noundef !13
  %42 = trunc i8 %41 to i1
  %43 = zext i1 %42 to i8
  store i8 %43, ptr %5, align 1, !tbaa !10
  br label %44

44:                                               ; preds = %40
  br label %45

45:                                               ; preds = %44
  br label %46

46:                                               ; preds = %45
  store i32 -1, ptr %4, align 4, !tbaa !34
  br label %55

47:                                               ; No predecessors!
  br label %48

48:                                               ; preds = %47
  br label %49

49:                                               ; preds = %48
  br label %50

50:                                               ; preds = %49
  br label %51

51:                                               ; preds = %50, %25
  br label %52

52:                                               ; preds = %51, %20
  %53 = load i32, ptr %3, align 4, !tbaa !34
  %54 = or i32 %53, 259
  store i32 %54, ptr %3, align 4, !tbaa !34
  br label %55

55:                                               ; preds = %52, %46
  %56 = load ptr, ptr %2, align 8, !tbaa !8
  %57 = getelementptr inbounds nuw %struct.H5FA_hdr_t, ptr %56, i32 0, i32 7
  %58 = load ptr, ptr %57, align 8, !tbaa !30
  %59 = load ptr, ptr %2, align 8, !tbaa !8
  %60 = getelementptr inbounds nuw %struct.H5FA_hdr_t, ptr %59, i32 0, i32 5
  %61 = load i64, ptr %60, align 8, !tbaa !16
  %62 = load ptr, ptr %2, align 8, !tbaa !8
  %63 = load i32, ptr %3, align 4, !tbaa !34
  %64 = call i32 @H5AC_unprotect(ptr noundef %58, ptr noundef @H5AC_FARRAY_HDR, i64 noundef %61, ptr noundef %62, i32 noundef %63)
  %65 = icmp slt i32 %64, 0
  br i1 %65, label %66, label %82

66:                                               ; preds = %55
  br label %67

67:                                               ; preds = %66
  br label %68

68:                                               ; preds = %67
  br label %69

69:                                               ; preds = %68
  %70 = load i64, ptr @H5E_FARRAY_g, align 8, !tbaa !14
  %71 = load i64, ptr @H5E_CANTUNPROTECT_g, align 8, !tbaa !14
  %72 = call i32 (ptr, ptr, i32, i64, i64, ptr, ...) @H5E_printf_stack(ptr noundef @.str, ptr noundef @__func__.H5FA__hdr_delete, i32 noundef 523, i64 noundef %70, i64 noundef %71, ptr noundef @.str.18)
  br label %73

73:                                               ; preds = %69
  br label %74

74:                                               ; preds = %73
  store i8 1, ptr %5, align 1, !tbaa !10
  %75 = load i8, ptr %5, align 1, !tbaa !10, !range !12, !noundef !13
  %76 = trunc i8 %75 to i1
  %77 = zext i1 %76 to i8
  store i8 %77, ptr %5, align 1, !tbaa !10
  br label %78

78:                                               ; preds = %74
  br label %79

79:                                               ; preds = %78
  store i32 -1, ptr %4, align 4, !tbaa !34
  br label %80

80:                                               ; preds = %79
  br label %81

81:                                               ; preds = %80
  br label %82

82:                                               ; preds = %81, %55
  br label %83

83:                                               ; preds = %82, %12
  %84 = load i32, ptr %4, align 4, !tbaa !34
  call void @llvm.lifetime.end.p0(i64 1, ptr %5) #5
  call void @llvm.lifetime.end.p0(i64 4, ptr %4) #5
  call void @llvm.lifetime.end.p0(i64 4, ptr %3) #5
  ret i32 %84
}