; Function Attrs: nounwind uwtable
define range(i32 -1, 1) i32 @H5FA__hdr_delete(ptr noundef %0) local_unnamed_addr #0 {
  %2 = load i8, ptr @H5FA_init_g, align 1, !tbaa !3, !range !7, !noundef !8
  %3 = trunc nuw i8 %2 to i1
  %4 = load i8, ptr @H5_libterm_g, align 1, !range !7
  %5 = trunc nuw i8 %4 to i1
  %6 = xor i1 %5, true
  %7 = select i1 %3, i1 true, i1 %6
  br i1 %7, label %8, label %29, !prof !9

8:                                                ; preds = %1
  %9 = getelementptr inbounds nuw i8, ptr %0, i64 272
  %10 = load i64, ptr %9, align 8, !tbaa !43
  %.not = icmp eq i64 %10, -1
  br i1 %.not, label %18, label %11

11:                                               ; preds = %8
  %12 = tail call i32 @H5FA__dblock_delete(ptr noundef nonnull %0, i64 noundef %10) #5
  %13 = icmp slt i32 %12, 0
  br i1 %13, label %14, label %18

14:                                               ; preds = %11
  %15 = load i64, ptr @H5E_FARRAY_g, align 8, !tbaa !10
  %16 = load i64, ptr @H5E_CANTDELETE_g, align 8, !tbaa !10
  %17 = tail call i32 (ptr, ptr, i32, i64, i64, ptr, ...) @H5E_printf_stack(ptr noundef nonnull @.str, ptr noundef nonnull @__func__.H5FA__hdr_delete, i32 noundef 514, i64 noundef %15, i64 noundef %16, ptr noundef nonnull @.str.17) #5
  br label %18

18:                                               ; preds = %8, %11, %14
  %.010 = phi i32 [ 0, %14 ], [ 259, %11 ], [ 259, %8 ]
  %.1 = phi i32 [ -1, %14 ], [ 0, %11 ], [ 0, %8 ]
  %19 = getelementptr inbounds nuw i8, ptr %0, i64 328
  %20 = load ptr, ptr %19, align 8, !tbaa !28
  %21 = getelementptr inbounds nuw i8, ptr %0, i64 312
  %22 = load i64, ptr %21, align 8, !tbaa !12
  %23 = tail call i32 @H5AC_unprotect(ptr noundef %20, ptr noundef nonnull @H5AC_FARRAY_HDR, i64 noundef %22, ptr noundef nonnull %0, i32 noundef %.010) #5
  %24 = icmp slt i32 %23, 0
  br i1 %24, label %25, label %29

25:                                               ; preds = %18
  %26 = load i64, ptr @H5E_FARRAY_g, align 8, !tbaa !10
  %27 = load i64, ptr @H5E_CANTUNPROTECT_g, align 8, !tbaa !10
  %28 = tail call i32 (ptr, ptr, i32, i64, i64, ptr, ...) @H5E_printf_stack(ptr noundef nonnull @.str, ptr noundef nonnull @__func__.H5FA__hdr_delete, i32 noundef 523, i64 noundef %26, i64 noundef %27, ptr noundef nonnull @.str.18) #5
  br label %29

29:                                               ; preds = %18, %25, %1
  %.0 = phi i32 [ -1, %25 ], [ %.1, %18 ], [ 0, %1 ]
  ret i32 %.0
}